target datalayout = "e-m:e-p270:32:32-p271:32:32-p272:64:64-i64:64-i128:128-f80:128-n8:16:32:64-S128"
target triple = "x86_64-pc-linux-gnu"

%struct._packet_info = type { ptr, ptr, i32, i32, %struct.nstime_t, %struct.nstime_t, %struct.nstime_t, i8, ptr, ptr, ptr, ptr, %struct._address, %struct._address, %struct._address, %struct._address, %struct._address, %struct._address, i32, ptr, i8, [3 x i8], %struct.anon.1, i32, i32, i32, i32, ptr, i8, ptr, ptr, i16, i16, i32, i32, i16, i32, i32, ptr, ptr, ptr, i8, i8, i16, i16, i16, i32, i16, i16, ptr, ptr, ptr, ptr, ptr, i32, i32 }
%struct.nstime_t = type { i64, i32 }
%struct._address = type { i32, i32, ptr, ptr }
%struct.anon.1 = type { i8, [3 x i8] }

@hf_megaco_packages_descriptor = internal global i32 0, align 4
@hf_megaco_requestid = internal global i32 0, align 4
@ett_megaco_packagesdescriptor = internal global i32 0, align 4
@g_ascii_table = external constant ptr, align 8

; Function Attrs: null_pointer_is_valid sspstrong uwtable
define internal i32 @megaco_tvb_skip_wsp_return(ptr noundef %0, i32 noundef %1) #0 {
  %3 = alloca ptr, align 8
  %4 = alloca i32, align 4
  %5 = alloca i32, align 4
  %6 = alloca i32, align 4
  store ptr %0, ptr %3, align 8
  store i32 %1, ptr %4, align 4
  call void @llvm.lifetime.start.p0(i64 4, ptr %5) #12
  %7 = load i32, ptr %4, align 4
  store i32 %7, ptr %5, align 4
  call void @llvm.lifetime.start.p0(i64 4, ptr %6) #12
  store i32 0, ptr %6, align 4
  %8 = load i32, ptr %4, align 4
  store i32 %8, ptr %5, align 4
  br label %9

9:                                                ; preds = %27, %2
  %10 = load i32, ptr %5, align 4
  %11 = load i32, ptr %6, align 4
  %12 = icmp sgt i32 %10, %11
  br i1 %12, label %13, label %24

13:                                               ; preds = %9
  %14 = load ptr, ptr @g_ascii_table, align 8
  %15 = load ptr, ptr %3, align 8
  %16 = load i32, ptr %5, align 4
  %17 = call zeroext i8 @tvb_get_uint8(ptr noundef %15, i32 noundef %16)
  %18 = zext i8 %17 to i64
  %19 = getelementptr i16, ptr %14, i64 %18
  %20 = load i16, ptr %19, align 2
  %21 = zext i16 %20 to i32
  %22 = and i32 %21, 256
  %23 = icmp ne i32 %22, 0
  br label %24

24:                                               ; preds = %13, %9
  %25 = phi i1 [ false, %9 ], [ %23, %13 ]
  br i1 %25, label %26, label %30

26:                                               ; preds = %24
  br label %27

27:                                               ; preds = %26
  %28 = load i32, ptr %5, align 4
  %29 = add i32 %28, -1
  store i32 %29, ptr %5, align 4
  br label %9, !llvm.loop !19

30:                                               ; preds = %24
  %31 = load i32, ptr %5, align 4
  %32 = add i32 %31, 1
  store i32 %32, ptr %5, align 4
  %33 = load i32, ptr %5, align 4
  call void @llvm.lifetime.end.p0(i64 4, ptr %6) #12
  call void @llvm.lifetime.end.p0(i64 4, ptr %5) #12
  ret i32 %33
}

; Function Attrs: null_pointer_is_valid sspstrong uwtable
define internal i32 @megaco_tvb_skip_wsp(ptr noundef %0, i32 noundef %1) #0 {
  %3 = alloca ptr, align 8
  %4 = alloca i32, align 4
  %5 = alloca i32, align 4
  %6 = alloca i32, align 4
  store ptr %0, ptr %3, align 8
  store i32 %1, ptr %4, align 4
  call void @llvm.lifetime.start.p0(i64 4, ptr %5) #12
  %7 = load i32, ptr %4, align 4
  store i32 %7, ptr %5, align 4
  call void @llvm.lifetime.start.p0(i64 4, ptr %6) #12
  %8 = load ptr, ptr %3, align 8
  %9 = call i32 @tvb_reported_length(ptr noundef %8)
  store i32 %9, ptr %6, align 4
  %10 = load i32, ptr %4, align 4
  store i32 %10, ptr %5, align 4
  br label %11

11:                                               ; preds = %29, %2
  %12 = load i32, ptr %5, align 4
  %13 = load i32, ptr %6, align 4
  %14 = icmp slt i32 %12, %13
  br i1 %14, label %15, label %26

15:                                               ; preds = %11
  %16 = load ptr, ptr @g_ascii_table, align 8
  %17 = load ptr, ptr %3, align 8
  %18 = load i32, ptr %5, align 4
  %19 = call zeroext i8 @tvb_get_uint8(ptr noundef %17, i32 noundef %18)
  %20 = zext i8 %19 to i64
  %21 = getelementptr i16, ptr %16, i64 %20
  %22 = load i16, ptr %21, align 2
  %23 = zext i16 %22 to i32
  %24 = and i32 %23, 256
  %25 = icmp ne i32 %24, 0
  br label %26

26:                                               ; preds = %15, %11
  %27 = phi i1 [ false, %11 ], [ %25, %15 ]
  br i1 %27, label %28, label %32

28:                                               ; preds = %26
  br label %29

29:                                               ; preds = %28
  %30 = load i32, ptr %5, align 4
  %31 = add i32 %30, 1
  store i32 %31, ptr %5, align 4
  br label %11, !llvm.loop !16

32:                                               ; preds = %26
  %33 = load i32, ptr %5, align 4
  call void @llvm.lifetime.end.p0(i64 4, ptr %6) #12
  call void @llvm.lifetime.end.p0(i64 4, ptr %5) #12
  ret i32 %33
}

; Function Attrs: null_pointer_is_valid sspstrong uwtable
define internal void @dissect_megaco_Packagesdescriptor(ptr noundef %0, ptr noundef %1, ptr noundef %2, i32 noundef %3, i32 noundef %4) #0 {
  %6 = alloca ptr, align 8
  %7 = alloca ptr, align 8
  %8 = alloca ptr, align 8
  %9 = alloca i32, align 4
  %10 = alloca i32, align 4
  %11 = alloca i32, align 4
  %12 = alloca i32, align 4
  %13 = alloca i32, align 4
  %14 = alloca i32, align 4
  %15 = alloca i32, align 4
  %16 = alloca i32, align 4
  %17 = alloca ptr, align 8
  %18 = alloca ptr, align 8
  %19 = alloca ptr, align 8
  store ptr %0, ptr %6, align 8
  store ptr %1, ptr %7, align 8
  store ptr %2, ptr %8, align 8
  store i32 %3, ptr %9, align 4
  store i32 %4, ptr %10, align 4
  call void @llvm.lifetime.start.p0(i64 4, ptr %11) #12
  call void @llvm.lifetime.start.p0(i64 4, ptr %12) #12
  call void @llvm.lifetime.start.p0(i64 4, ptr %13) #12
  call void @llvm.lifetime.start.p0(i64 4, ptr %14) #12
  call void @llvm.lifetime.start.p0(i64 4, ptr %15) #12
  call void @llvm.lifetime.start.p0(i64 4, ptr %16) #12
  call void @llvm.lifetime.start.p0(i64 8, ptr %17) #12
  call void @llvm.lifetime.start.p0(i64 8, ptr %18) #12
  call void @llvm.lifetime.start.p0(i64 8, ptr %19) #12
  %20 = load i32, ptr %9, align 4
  %21 = add i32 %20, 1
  %22 = load i32, ptr %10, align 4
  %23 = sub i32 %21, %22
  store i32 %23, ptr %11, align 4
  %24 = load ptr, ptr %8, align 8
  %25 = load i32, ptr @hf_megaco_packages_descriptor, align 4
  %26 = load ptr, ptr %6, align 8
  %27 = load i32, ptr %10, align 4
  %28 = load i32, ptr %11, align 4
  %29 = call ptr @proto_tree_add_item(ptr noundef %24, i32 noundef %25, ptr noundef %26, i32 noundef %27, i32 noundef %28, i32 noundef 2)
  store ptr %29, ptr %18, align 8
  %30 = load ptr, ptr %18, align 8
  %31 = load i32, ptr @ett_megaco_packagesdescriptor, align 4
  %32 = call ptr @proto_item_add_subtree(ptr noundef %30, i32 noundef %31)
  store ptr %32, ptr %17, align 8
  %33 = load ptr, ptr %6, align 8
  %34 = load i32, ptr %10, align 4
  %35 = load i32, ptr %9, align 4
  %36 = call i32 @tvb_find_uint8(ptr noundef %33, i32 noundef %34, i32 noundef %35, i8 noundef zeroext 61)
  store i32 %36, ptr %12, align 4
  %37 = load ptr, ptr %6, align 8
  %38 = load i32, ptr %10, align 4
  %39 = load i32, ptr %9, align 4
  %40 = call i32 @tvb_find_uint8(ptr noundef %37, i32 noundef %38, i32 noundef %39, i8 noundef zeroext 123)
  store i32 %40, ptr %13, align 4
  %41 = load i32, ptr %12, align 4
  %42 = load i32, ptr %9, align 4
  %43 = icmp slt i32 %41, %42
  br i1 %43, label %44, label %190

44:                                               ; preds = %5
  %45 = load i32, ptr %12, align 4
  %46 = icmp ne i32 %45, -1
  br i1 %46, label %47, label %190

47:                                               ; preds = %44
  %48 = load ptr, ptr %6, align 8
  %49 = load i32, ptr %12, align 4
  %50 = add i32 %49, 1
  %51 = call i32 @megaco_tvb_skip_wsp(ptr noundef %48, i32 noundef %50)
  store i32 %51, ptr %12, align 4
  %52 = load ptr, ptr %6, align 8
  %53 = load i32, ptr %13, align 4
  %54 = sub i32 %53, 1
  %55 = call i32 @megaco_tvb_skip_wsp_return(ptr noundef %52, i32 noundef %54)
  store i32 %55, ptr %14, align 4
  %56 = load i32, ptr %14, align 4
  %57 = load i32, ptr %12, align 4
  %58 = sub i32 %56, %57
  store i32 %58, ptr %11, align 4
  %59 = load ptr, ptr %17, align 8
  %60 = load i32, ptr @hf_megaco_requestid, align 4
  %61 = load ptr, ptr %6, align 8
  %62 = load i32, ptr %12, align 4
  %63 = load ptr, ptr %7, align 8
  %64 = getelementptr inbounds nuw %struct._packet_info, ptr %63, i32 0, i32 51
  %65 = load ptr, ptr %64, align 8
  %66 = load ptr, ptr %6, align 8
  %67 = load i32, ptr %12, align 4
  %68 = load i32, ptr %11, align 4
  %69 = call ptr @tvb_format_text(ptr noundef %65, ptr noundef %66, i32 noundef %67, i32 noundef %68)
  %70 = call i64 @strtoul(ptr noundef %69, ptr noundef null, i32 noundef 10) #12
  %71 = trunc i64 %70 to i32
  %72 = call ptr @proto_tree_add_uint(ptr noundef %59, i32 noundef %60, ptr noundef %61, i32 noundef %62, i32 noundef 1, i32 noundef %71)
  store ptr %72, ptr %19, align 8
  %73 = load ptr, ptr %19, align 8
  %74 = load i32, ptr %11, align 4
  call void @proto_item_set_len(ptr noundef %73, i32 noundef %74)
  %75 = load i32, ptr %9, align 4
  store i32 %75, ptr %15, align 4
  %76 = load i32, ptr %13, align 4
  %77 = add i32 %76, 1
  store i32 %77, ptr %9, align 4
  %78 = load i32, ptr %13, align 4
  %79 = add i32 %78, 1
  store i32 %79, ptr %16, align 4
  %80 = load ptr, ptr %6, align 8
  %81 = load i32, ptr %13, align 4
  %82 = add i32 %81, 1
  %83 = call i32 @megaco_tvb_skip_wsp(ptr noundef %80, i32 noundef %82)
  store i32 %83, ptr %10, align 4
  br label %84

84:                                               ; preds = %185, %47
  %85 = load ptr, ptr %6, align 8
  %86 = load i32, ptr %9, align 4
  %87 = add i32 %86, 1
  %88 = load i32, ptr %15, align 4
  %89 = call i32 @tvb_find_uint8(ptr noundef %85, i32 noundef %87, i32 noundef %88, i8 noundef zeroext 125)
  store i32 %89, ptr %9, align 4
  %90 = load ptr, ptr %6, align 8
  %91 = load i32, ptr %16, align 4
  %92 = load i32, ptr %15, align 4
  %93 = call i32 @tvb_find_uint8(ptr noundef %90, i32 noundef %91, i32 noundef %92, i8 noundef zeroext 123)
  store i32 %93, ptr %16, align 4
  %94 = load ptr, ptr %6, align 8
  %95 = load i32, ptr %10, align 4
  %96 = load i32, ptr %15, align 4
  %97 = call i32 @tvb_find_uint8(ptr noundef %94, i32 noundef %95, i32 noundef %96, i8 noundef zeroext 44)
  store i32 %97, ptr %12, align 4
  %98 = load i32, ptr %12, align 4
  %99 = icmp eq i32 %98, -1
  br i1 %99, label %104, label %100

100:                                              ; preds = %84
  %101 = load i32, ptr %12, align 4
  %102 = load i32, ptr %15, align 4
  %103 = icmp sgt i32 %101, %102
  br i1 %103, label %104, label %106

104:                                              ; preds = %100, %84
  %105 = load i32, ptr %15, align 4
  store i32 %105, ptr %12, align 4
  br label %106

106:                                              ; preds = %104, %100
  %107 = load i32, ptr %16, align 4
  %108 = load i32, ptr %12, align 4
  %109 = icmp sgt i32 %107, %108
  br i1 %109, label %113, label %110

110:                                              ; preds = %106
  %111 = load i32, ptr %16, align 4
  %112 = icmp eq i32 %111, -1
  br i1 %112, label %113, label %119

113:                                              ; preds = %110, %106
  %114 = load ptr, ptr %6, align 8
  %115 = load i32, ptr %12, align 4
  %116 = sub i32 %115, 1
  %117 = call i32 @megaco_tvb_skip_wsp_return(ptr noundef %114, i32 noundef %116)
  %118 = sub i32 %117, 1
  store i32 %118, ptr %9, align 4
  br label %119

119:                                              ; preds = %113, %110
  %120 = load i32, ptr %12, align 4
  %121 = load i32, ptr %16, align 4
  %122 = icmp sgt i32 %120, %121
  br i1 %122, label %123, label %156

123:                                              ; preds = %119
  %124 = load i32, ptr %16, align 4
  %125 = icmp ne i32 %124, -1
  br i1 %125, label %126, label %156

126:                                              ; preds = %123
  br label %127

127:                                              ; preds = %154, %126
  %128 = load i32, ptr %16, align 4
  %129 = icmp ne i32 %128, -1
  br i1 %129, label %130, label %134

130:                                              ; preds = %127
  %131 = load i32, ptr %9, align 4
  %132 = load i32, ptr %16, align 4
  %133 = icmp sgt i32 %131, %132
  br label %134

134:                                              ; preds = %130, %127
  %135 = phi i1 [ false, %127 ], [ %133, %130 ]
  br i1 %135, label %136, label %155

136:                                              ; preds = %134
  %137 = load ptr, ptr %6, align 8
  %138 = load i32, ptr %16, align 4
  %139 = add i32 %138, 1
  %140 = load i32, ptr %15, align 4
  %141 = call i32 @tvb_find_uint8(ptr noundef %137, i32 noundef %139, i32 noundef %140, i8 noundef zeroext 123)
  store i32 %141, ptr %16, align 4
  %142 = load i32, ptr %16, align 4
  %143 = load i32, ptr %9, align 4
  %144 = icmp slt i32 %142, %143
  br i1 %144, label %145, label %154

145:                                              ; preds = %136
  %146 = load i32, ptr %16, align 4
  %147 = icmp ne i32 %146, -1
  br i1 %147, label %148, label %154

148:                                              ; preds = %145
  %149 = load ptr, ptr %6, align 8
  %150 = load i32, ptr %9, align 4
  %151 = add i32 %150, 1
  %152 = load i32, ptr %15, align 4
  %153 = call i32 @tvb_find_uint8(ptr noundef %149, i32 noundef %151, i32 noundef %152, i8 noundef zeroext 125)
  store i32 %153, ptr %9, align 4
  br label %154

154:                                              ; preds = %148, %145, %136
  br label %127, !llvm.loop !39

155:                                              ; preds = %134
  br label %156

156:                                              ; preds = %155, %123, %119
  %157 = load i32, ptr %9, align 4
  %158 = add i32 %157, 1
  %159 = load i32, ptr %10, align 4
  %160 = sub i32 %158, %159
  store i32 %160, ptr %11, align 4
  %161 = load ptr, ptr %17, align 8
  %162 = load ptr, ptr %6, align 8
  %163 = load i32, ptr %10, align 4
  %164 = load i32, ptr %11, align 4
  %165 = call ptr @proto_tree_add_format_text(ptr noundef %161, ptr noundef %162, i32 noundef %163, i32 noundef %164)
  %166 = load ptr, ptr %6, align 8
  %167 = load i32, ptr %9, align 4
  %168 = load i32, ptr %15, align 4
  %169 = call i32 @tvb_find_uint8(ptr noundef %166, i32 noundef %167, i32 noundef %168, i8 noundef zeroext 44)
  store i32 %169, ptr %12, align 4
  %170 = load i32, ptr %12, align 4
  %171 = icmp eq i32 %170, -1
  br i1 %171, label %176, label %172

172:                                              ; preds = %156
  %173 = load i32, ptr %12, align 4
  %174 = load i32, ptr %15, align 4
  %175 = icmp sgt i32 %173, %174
  br i1 %175, label %176, label %178

176:                                              ; preds = %172, %156
  %177 = load i32, ptr %15, align 4
  store i32 %177, ptr %12, align 4
  br label %178

178:                                              ; preds = %176, %172
  %179 = load ptr, ptr %6, align 8
  %180 = load i32, ptr %12, align 4
  %181 = add i32 %180, 1
  %182 = call i32 @megaco_tvb_skip_wsp(ptr noundef %179, i32 noundef %181)
  store i32 %182, ptr %10, align 4
  %183 = load i32, ptr %10, align 4
  store i32 %183, ptr %16, align 4
  %184 = load i32, ptr %10, align 4
  store i32 %184, ptr %9, align 4
  br label %185

185:                                              ; preds = %178
  %186 = load i32, ptr %12, align 4
  %187 = load i32, ptr %15, align 4
  %188 = icmp slt i32 %186, %187
  br i1 %188, label %84, label %189, !llvm.loop !40

189:                                              ; preds = %185
  br label %190

190:                                              ; preds = %189, %44, %5
  call void @llvm.lifetime.end.p0(i64 8, ptr %19) #12
  call void @llvm.lifetime.end.p0(i64 8, ptr %18) #12
  call void @llvm.lifetime.end.p0(i64 8, ptr %17) #12
  call void @llvm.lifetime.end.p0(i64 4, ptr %16) #12
  call void @llvm.lifetime.end.p0(i64 4, ptr %15) #12
  call void @llvm.lifetime.end.p0(i64 4, ptr %14) #12
  call void @llvm.lifetime.end.p0(i64 4, ptr %13) #12
  call void @llvm.lifetime.end.p0(i64 4, ptr %12) #12
  call void @llvm.lifetime.end.p0(i64 4, ptr %11) #12
  ret void
}