; Function Attrs: null_pointer_is_valid sspstrong uwtable
define internal fastcc void @dissect_megaco_Packagesdescriptor(ptr noundef %0, ptr noundef readonly captures(none) %1, ptr noundef %2, i32 noundef %3, i32 noundef %4) unnamed_addr #0 {
  %6 = add i32 %3, 1
  %7 = sub i32 %6, %4
  %8 = load i32, ptr @hf_megaco_packages_descriptor, align 4
  %9 = tail call ptr @proto_tree_add_item(ptr noundef %2, i32 noundef %8, ptr noundef %0, i32 noundef %4, i32 noundef %7, i32 noundef 2)
  %10 = load i32, ptr @ett_megaco_packagesdescriptor, align 4
  %11 = tail call ptr @proto_item_add_subtree(ptr noundef %9, i32 noundef %10)
  %12 = tail call i32 @tvb_find_uint8(ptr noundef %0, i32 noundef %4, i32 noundef %3, i8 noundef zeroext 61)
  %13 = tail call i32 @tvb_find_uint8(ptr noundef %0, i32 noundef %4, i32 noundef %3, i8 noundef zeroext 123)
  %14 = icmp slt i32 %12, %3
  %15 = icmp ne i32 %12, -1
  %or.cond = and i1 %14, %15
  br i1 %or.cond, label %16, label %.loopexit127

16:                                               ; preds = %5
  %17 = add nuw i32 %12, 1
  %18 = tail call i32 @tvb_reported_length(ptr noundef %0)
  %19 = icmp slt i32 %17, %18
  %.pre.pre.pre = load ptr, ptr @g_ascii_table, align 8
  br i1 %19, label %.lr.ph.i, label %megaco_tvb_skip_wsp.exit

.lr.ph.i:                                         ; preds = %16, %25
  %.08.i = phi i32 [ %26, %25 ], [ %17, %16 ]
  %20 = tail call zeroext i8 @tvb_get_uint8(ptr noundef %0, i32 noundef %.08.i)
  %21 = zext i8 %20 to i64
  %22 = getelementptr i16, ptr %.pre.pre.pre, i64 %21
  %23 = load i16, ptr %22, align 2
  %24 = and i16 %23, 256
  %.not.i = icmp eq i16 %24, 0
  br i1 %.not.i, label %megaco_tvb_skip_wsp.exit, label %25

25:                                               ; preds = %.lr.ph.i
  %26 = add i32 %.08.i, 1
  %exitcond.not.i = icmp eq i32 %26, %18
  br i1 %exitcond.not.i, label %megaco_tvb_skip_wsp.exit, label %.lr.ph.i, !llvm.loop !8

megaco_tvb_skip_wsp.exit:                         ; preds = %.lr.ph.i, %25, %16
  %.0.lcssa.i = phi i32 [ %17, %16 ], [ %.08.i, %.lr.ph.i ], [ %18, %25 ]
  %27 = add i32 %13, -1
  %28 = icmp sgt i32 %27, 0
  br i1 %28, label %.lr.ph.i107, label %megaco_tvb_skip_wsp_return.exit

.lr.ph.i107:                                      ; preds = %megaco_tvb_skip_wsp.exit, %34
  %.08.i108 = phi i32 [ %35, %34 ], [ %27, %megaco_tvb_skip_wsp.exit ]
  %29 = tail call zeroext i8 @tvb_get_uint8(ptr noundef %0, i32 noundef %.08.i108)
  %30 = zext i8 %29 to i64
  %31 = getelementptr i16, ptr %.pre.pre.pre, i64 %30
  %32 = load i16, ptr %31, align 2
  %33 = and i16 %32, 256
  %.not.i109 = icmp eq i16 %33, 0
  br i1 %.not.i109, label %megaco_tvb_skip_wsp_return.exit, label %34

34:                                               ; preds = %.lr.ph.i107
  %35 = add nsw i32 %.08.i108, -1
  %36 = icmp sgt i32 %.08.i108, 1
  br i1 %36, label %.lr.ph.i107, label %megaco_tvb_skip_wsp_return.exit, !llvm.loop !14

megaco_tvb_skip_wsp_return.exit:                  ; preds = %.lr.ph.i107, %34, %megaco_tvb_skip_wsp.exit
  %.0.lcssa.i106 = phi i32 [ %27, %megaco_tvb_skip_wsp.exit ], [ %.08.i108, %.lr.ph.i107 ], [ 0, %34 ]
  %reass.sub = sub i32 %.0.lcssa.i106, %.0.lcssa.i
  %37 = add i32 %reass.sub, 1
  %38 = load i32, ptr @hf_megaco_requestid, align 4
  %39 = getelementptr inbounds nuw i8, ptr %1, i64 408
  %40 = load ptr, ptr %39, align 8
  %41 = tail call ptr @tvb_format_text(ptr noundef %40, ptr noundef %0, i32 noundef %.0.lcssa.i, i32 noundef %37)
  %42 = tail call i64 @strtoul(ptr noundef captures(none) %41, ptr noundef null, i32 noundef 10) #11
  %43 = trunc i64 %42 to i32
  %44 = tail call ptr @proto_tree_add_uint(ptr noundef %11, i32 noundef %38, ptr noundef %0, i32 noundef %.0.lcssa.i, i32 noundef 1, i32 noundef %43)
  tail call void @proto_item_set_len(ptr noundef %44, i32 noundef %37)
  %45 = add i32 %13, 1
  %46 = tail call i32 @tvb_reported_length(ptr noundef %0)
  %47 = icmp slt i32 %45, %46
  br i1 %47, label %.lr.ph.i111, label %megaco_tvb_skip_wsp.exit115.preheader

.lr.ph.i111:                                      ; preds = %megaco_tvb_skip_wsp_return.exit, %53
  %.08.i112 = phi i32 [ %54, %53 ], [ %45, %megaco_tvb_skip_wsp_return.exit ]
  %48 = tail call zeroext i8 @tvb_get_uint8(ptr noundef %0, i32 noundef %.08.i112)
  %49 = zext i8 %48 to i64
  %50 = getelementptr i16, ptr %.pre.pre.pre, i64 %49
  %51 = load i16, ptr %50, align 2
  %52 = and i16 %51, 256
  %.not.i113 = icmp eq i16 %52, 0
  br i1 %.not.i113, label %megaco_tvb_skip_wsp.exit115.preheader, label %53

53:                                               ; preds = %.lr.ph.i111
  %54 = add i32 %.08.i112, 1
  %exitcond.not.i114 = icmp eq i32 %54, %46
  br i1 %exitcond.not.i114, label %megaco_tvb_skip_wsp.exit115.preheader, label %.lr.ph.i111, !llvm.loop !8

megaco_tvb_skip_wsp.exit115.preheader:            ; preds = %.lr.ph.i111, %53, %megaco_tvb_skip_wsp_return.exit
  %.094.ph = phi i32 [ %45, %megaco_tvb_skip_wsp_return.exit ], [ %46, %53 ], [ %.08.i112, %.lr.ph.i111 ]
  br label %megaco_tvb_skip_wsp.exit115

megaco_tvb_skip_wsp.exit115:                      ; preds = %megaco_tvb_skip_wsp.exit115.preheader, %megaco_tvb_skip_wsp.exit126
  %.094 = phi i32 [ %.0.lcssa.i121, %megaco_tvb_skip_wsp.exit126 ], [ %.094.ph, %megaco_tvb_skip_wsp.exit115.preheader ]
  %.0 = phi i32 [ %.0.lcssa.i121, %megaco_tvb_skip_wsp.exit126 ], [ %45, %megaco_tvb_skip_wsp.exit115.preheader ]
  %55 = add i32 %.0, 1
  %56 = tail call i32 @tvb_find_uint8(ptr noundef %0, i32 noundef %55, i32 noundef %3, i8 noundef zeroext 125)
  %57 = tail call i32 @tvb_find_uint8(ptr noundef %0, i32 noundef %.0, i32 noundef %3, i8 noundef zeroext 123)
  %58 = tail call i32 @tvb_find_uint8(ptr noundef %0, i32 noundef %.094, i32 noundef %3, i8 noundef zeroext 44)
  %59 = icmp eq i32 %58, -1
  %60 = tail call i32 @llvm.smin.i32(i32 %58, i32 %3)
  %.097 = select i1 %59, i32 %3, i32 %60
  %61 = icmp sgt i32 %57, %.097
  %62 = icmp eq i32 %57, -1
  %or.cond3 = or i1 %62, %61
  br i1 %or.cond3, label %63, label %megaco_tvb_skip_wsp_return.exit120

63:                                               ; preds = %megaco_tvb_skip_wsp.exit115
  %64 = add i32 %.097, -1
  %65 = icmp sgt i32 %64, 0
  br i1 %65, label %.lr.ph.i117, label %megaco_tvb_skip_wsp_return.exit120

.lr.ph.i117:                                      ; preds = %63, %71
  %.08.i118 = phi i32 [ %72, %71 ], [ %64, %63 ]
  %66 = tail call zeroext i8 @tvb_get_uint8(ptr noundef %0, i32 noundef %.08.i118)
  %67 = zext i8 %66 to i64
  %68 = getelementptr i16, ptr %.pre.pre.pre, i64 %67
  %69 = load i16, ptr %68, align 2
  %70 = and i16 %69, 256
  %.not.i119 = icmp eq i16 %70, 0
  br i1 %.not.i119, label %megaco_tvb_skip_wsp_return.exit120, label %71

71:                                               ; preds = %.lr.ph.i117
  %72 = add nsw i32 %.08.i118, -1
  %73 = icmp sgt i32 %.08.i118, 1
  br i1 %73, label %.lr.ph.i117, label %megaco_tvb_skip_wsp_return.exit120, !llvm.loop !14

megaco_tvb_skip_wsp_return.exit120:               ; preds = %71, %.lr.ph.i117, %63, %megaco_tvb_skip_wsp.exit115
  %.1 = phi i32 [ %56, %megaco_tvb_skip_wsp.exit115 ], [ %64, %63 ], [ %.08.i118, %.lr.ph.i117 ], [ 0, %71 ]
  %74 = icmp sgt i32 %.097, %57
  %75 = icmp ne i32 %57, -1
  %or.cond5 = and i1 %75, %74
  %76 = icmp sgt i32 %.1, %57
  %or.cond130 = select i1 %or.cond5, i1 %76, i1 false
  br i1 %or.cond130, label %.lr.ph, label %.loopexit

.lr.ph:                                           ; preds = %megaco_tvb_skip_wsp_return.exit120, %84
  %.3129 = phi i32 [ %.4, %84 ], [ %.1, %megaco_tvb_skip_wsp_return.exit120 ]
  %.196128 = phi i32 [ %78, %84 ], [ %57, %megaco_tvb_skip_wsp_return.exit120 ]
  %77 = add nuw i32 %.196128, 1
  %78 = tail call i32 @tvb_find_uint8(ptr noundef %0, i32 noundef %77, i32 noundef %3, i8 noundef zeroext 123)
  %79 = icmp slt i32 %78, %.3129
  %80 = icmp ne i32 %78, -1
  %or.cond7 = and i1 %79, %80
  br i1 %or.cond7, label %81, label %84

81:                                               ; preds = %.lr.ph
  %82 = add i32 %.3129, 1
  %83 = tail call i32 @tvb_find_uint8(ptr noundef %0, i32 noundef %82, i32 noundef %3, i8 noundef zeroext 125)
  br label %84

84:                                               ; preds = %81, %.lr.ph
  %.4 = phi i32 [ %83, %81 ], [ %.3129, %.lr.ph ]
  %85 = icmp sgt i32 %.4, %78
  %86 = select i1 %80, i1 %85, i1 false
  br i1 %86, label %.lr.ph, label %.loopexit, !llvm.loop !47

.loopexit:                                        ; preds = %84, %megaco_tvb_skip_wsp_return.exit120
  %.2 = phi i32 [ %.1, %megaco_tvb_skip_wsp_return.exit120 ], [ %.4, %84 ]
  %reass.sub131 = sub i32 %.2, %.094
  %87 = add i32 %reass.sub131, 1
  %88 = tail call ptr @proto_tree_add_format_text(ptr noundef %11, ptr noundef %0, i32 noundef %.094, i32 noundef %87)
  %89 = tail call i32 @tvb_find_uint8(ptr noundef %0, i32 noundef %.2, i32 noundef %3, i8 noundef zeroext 44)
  %90 = icmp eq i32 %89, -1
  %91 = tail call i32 @llvm.smin.i32(i32 %89, i32 %3)
  %.198 = select i1 %90, i32 %3, i32 %91
  %92 = add i32 %.198, 1
  %93 = tail call i32 @tvb_reported_length(ptr noundef %0)
  %94 = icmp slt i32 %92, %93
  br i1 %94, label %.lr.ph.i122, label %megaco_tvb_skip_wsp.exit126

.lr.ph.i122:                                      ; preds = %.loopexit, %100
  %.08.i123 = phi i32 [ %101, %100 ], [ %92, %.loopexit ]
  %95 = tail call zeroext i8 @tvb_get_uint8(ptr noundef %0, i32 noundef %.08.i123)
  %96 = zext i8 %95 to i64
  %97 = getelementptr i16, ptr %.pre.pre.pre, i64 %96
  %98 = load i16, ptr %97, align 2
  %99 = and i16 %98, 256
  %.not.i124 = icmp eq i16 %99, 0
  br i1 %.not.i124, label %megaco_tvb_skip_wsp.exit126, label %100

100:                                              ; preds = %.lr.ph.i122
  %101 = add i32 %.08.i123, 1
  %exitcond.not.i125 = icmp eq i32 %101, %93
  br i1 %exitcond.not.i125, label %megaco_tvb_skip_wsp.exit126, label %.lr.ph.i122, !llvm.loop !8

megaco_tvb_skip_wsp.exit126:                      ; preds = %.lr.ph.i122, %100, %.loopexit
  %.0.lcssa.i121 = phi i32 [ %92, %.loopexit ], [ %.08.i123, %.lr.ph.i122 ], [ %93, %100 ]
  %102 = icmp slt i32 %.198, %3
  br i1 %102, label %megaco_tvb_skip_wsp.exit115, label %.loopexit127, !llvm.loop !48

.loopexit127:                                     ; preds = %megaco_tvb_skip_wsp.exit126, %5
  ret void
}